; Function Attrs: mustprogress uwtable
define internal noundef double @_ZNSt17_Function_handlerIFddEN8QuantLib12_GLOBAL__N_114payoff_adapterEE9_M_invokeERKSt9_Any_dataOd(ptr nocapture noundef nonnull readonly align 8 dereferenceable(16) %__functor, ptr nocapture noundef nonnull readonly align 8 dereferenceable(8) %__args) #7 align 2 {
entry:
  %__functor.val = load ptr, ptr %__functor, align 8, !tbaa !3
  %__args.val = load double, ptr %__args, align 8, !tbaa !90
  %0 = load ptr, ptr %__functor.val, align 8, !tbaa !80
  %cmp.not.i.i.i.i = icmp eq ptr %0, null
  br i1 %cmp.not.i.i.i.i, label %cond.false.i.i.i.i, label %_ZSt10__invoke_rIdRN8QuantLib12_GLOBAL__N_114payoff_adapterEJdEENSt9enable_ifIX16is_invocable_r_vIT_T0_DpT1_EES5_E4typeEOS6_DpOS7_.exit, !prof !46

cond.false.i.i.i.i:                               ; preds = %entry
  tail call void @_ZN5boost16assertion_failedEPKcS1_S1_l(ptr noundef nonnull @.str.11, ptr noundef nonnull @__PRETTY_FUNCTION__._ZNK5boost10shared_ptrIN8QuantLib6PayoffEEdeEv, ptr noundef nonnull @.str.12, i64 noundef 778)
  %.pre.i.i.i.i = load ptr, ptr %__functor.val, align 8, !tbaa !80
  br label %_ZSt10__invoke_rIdRN8QuantLib12_GLOBAL__N_114payoff_adapterEJdEENSt9enable_ifIX16is_invocable_r_vIT_T0_DpT1_EES5_E4typeEOS6_DpOS7_.exit

_ZSt10__invoke_rIdRN8QuantLib12_GLOBAL__N_114payoff_adapterEJdEENSt9enable_ifIX16is_invocable_r_vIT_T0_DpT1_EES5_E4typeEOS6_DpOS7_.exit: ; preds = %entry, %cond.false.i.i.i.i
  %1 = phi ptr [ %0, %entry ], [ %.pre.i.i.i.i, %cond.false.i.i.i.i ]
  %vtable.i.i.i = load ptr, ptr %1, align 8, !tbaa !35
  %vfn.i.i.i = getelementptr inbounds i8, ptr %vtable.i.i.i, i64 32
  %2 = load ptr, ptr %vfn.i.i.i, align 8
  %call2.i.i.i = tail call noundef double %2(ptr noundef nonnull align 8 dereferenceable(8) %1, double noundef %__args.val)
  ret double %call2.i.i.i
}